; Plot.def : Declares the module parameters for the DLL.

LIBRARY      "PLOTNet"
DESCRIPTION  'PLOTNet Windows Dynamic Link Library'

EXPORTS
    ; Explicit exports can go here

??0CCSDialog@@QAE@IPAVCWnd@@@Z 
??0CCSDialog@@QAE@PBDPAVCWnd@@@Z 
??0CCSDialog@@QAE@XZ
??1CCSDialog@@UAE@XZ      

??0CCSPropertyPage@@QAE@II@Z 
??0CCSPropertyPage@@QAE@PBDI@Z
??1CCSPropertyPage@@UAE@XZ 

??0CCSPropertySheet@@QAE@IPAVCWnd@@I@Z 
??0CCSPropertySheet@@QAE@PBDPAVCWnd@@I@Z
??1CCSPropertySheet@@UAE@XZ

??0CLinePage@@QAE@PAUtagLOGPEN@@@Z
?SetLineIndirect@CLinePage@@QAEXPAUtagLOGPEN@@@Z
?GetLineIndirect@CLinePage@@QAEXPAUtagLOGPEN@@@Z

??0CPatternPage@@QAE@PAUtagLOGBRUSH@@@Z
?SetPatternIndirect@CPatternPage@@QAEXPAUtagLOGBRUSH@@@Z 
?GetPatternIndirect@CPatternPage@@QAEXPAUtagLOGBRUSH@@@Z

??0CPlotDepthDialog@@QAE@PAVCWnd@@@Z
?SetDepth@CPlotDepthDialog@@QAEXNN@Z 
?GetDepth@CPlotDepthDialog@@QAEXAAN0@Z
??0CDepthScaleDialog@@QAE@PAVCWnd@@@Z

??0CMinFontPage@@QAE@XZ 
??1CMinFontPage@@UAE@XZ
?AddFont@CMinFontPage@@QAEXPAUtagTEXTFONT@@@Z
?OnOK@CMinFontPage@@UAEXXZ

?DrawHorLine@@YAXHHHPAVCBitmapPen@@PAVCDC@@@Z
?GetCoreOGSize@@YA?AVCSize@@H@Z
?GetCoreLthSize@@YA?AVCSize@@H@Z
?GetCoreSize@@YA?AVCSize@@HH@Z
?DrawCoreOG@@YAXPAVCDC@@VCPoint@@H@Z 
?DrawCoreLth@@YAXPAVCDC@@VCPoint@@H@Z
?DrawCore@@YAXPAVCDC@@VCPoint@@HH@Z

??0CBitmapPen@@QAE@XZ
??0CBitmapPen@@QAE@PAVCBitmap@@HK@Z
?SetWidth@CBitmapPen@@QAEXH@Z
?GetWidth@CBitmapPen@@QAEHXZ 
?SetColor@CBitmapPen@@QAEXK@Z
?GetColor@CBitmapPen@@QAEKXZ
 ?SetPenOrg@CBitmapPen@@QAEXABVCPoint@@@Z
?GetPenOrg@CBitmapPen@@QAE?AVCPoint@@XZ
?CreatePen@CBitmapPen@@QAEXPAVCBitmap@@HK@Z 

??0CLinePen@@QAE@XZ 
??0CLinePen@@QAE@HHK@Z 
?CreateLinePen@CLinePen@@QAEXHHK@Z 
?SetLineNo@CLinePen@@QAEXH@Z
?GetLineNo@CLinePen@@QAEHXZ

??0CLineStyleBox@@QAE@H@Z
?SetStyleType@CLineStyleBox@@QAEXH@Z
?AddItem@CLineStyleBox@@QAEXXZ

??0CFillPatternBox@@QAE@H@Z
?SetStyleType@CFillPatternBox@@QAEXH@Z 
?AddItem@CFillPatternBox@@QAEXXZ

;??0CMyPropertySheet@@QAE@IPAVCWnd@@I@Z 
;??0CMyPropertySheet@@QAE@PBDPAVCWnd@@I@Z 
;??1CMyPropertySheet@@UAE@XZ

??0CGridPage@@QAE@PAVCGridObj@@@Z

??0CGridObj@@QAE@XZ
??1CGridObj@@UAE@XZ
??0CGridObj@@QAE@ABVCRect@@NNH@Z
?Serialize@CGridObj@@UAEXAAVCArchive@@@Z
;?OnDepthTypeChange@CGridObj@@QAEXH@Z
?SetRect@CGridObj@@QAEXABVCRect@@@Z 
?SetDepth@CGridObj@@QAEXNN@Z 
?GetRect@CGridObj@@QAE?AVCRect@@XZ 
?DrawHoriLine@CGridObj@@QAEXPAVCDC@@@Z
?DrawVertLine@CGridObj@@QAEXPAVCDC@@@Z
?SetDepC@CGridObj@@QAEXN@Z
?SerializeLogFont@@YAXAAVCArchive@@AAUtagLOGFONTA@@@Z
?SerializeLogPen@@YAXAAVCArchive@@AAUtagLOGPEN@@@Z
?SerializeLogBrush@@YAXAAVCArchive@@AAUtagLOGBRUSH@@@Z
?SerializePoint@@YAXAAVCArchive@@PAUtagPOINT@@H@Z
