; FID.def : Declares the module parameters for the DLL.

LIBRARY      "FIDioNet"
;LIBRARY      "FIDioNet"
DESCRIPTION  'FIDio Windows Dynamic Link Library'

EXPORTS
 ; Explicit exports can go here
 ??0CFIDIO@@QAE@PBDPBUtagFIDINDEX@@@Z 
 ??0CFIDIO@@QAE@PBD@Z
 ??1CFIDIO@@QAE@XZ   
 ?GetDefaultContentsValue@CFIDIO@@QAEXPADI@Z
 ?Open@CFIDIO@@QAEHXZ 
 ?Close@CFIDIO@@QAEHXZ 
 ?ReadIndex@CFIDIO@@IAEHPAU_iobuf@@@Z 
 ?WriteIndex@CFIDIO@@IAEXPAU_iobuf@@PBUtagFIDINDEX@@@Z 
 ?GetDimenSion@CFIDIO@@QAEHXZ
 ?GetContent@CFIDIO@@QAEPAUtagFIDCONTENT@@H@Z
 ?GetContent@CFIDIO@@QAEPAUtagFIDCONTENT@@PBD@Z
 ?ReverseDepth@CFIDIO@@QAEHXZ 
 ?SetDepth@CFIDIO@@QAEHMM@Z 
 ?Read@CFIDIO@@QAEIHIPAM@Z
 ?Read@CFIDIO@@QAEIHIPAN@Z
 ?Read@CFIDIO@@QAEIHIPAF@Z
 ?Read@CFIDIO@@QAEIHIPAH@Z
 ?Read@CFIDIO@@QAEIHIPAJ@Z
 ?Read@CFIDIO@@QAEIHIPAD@Z
 ?Read@CFIDIO@@QAEIPBDIPAM@Z
 ?Read@CFIDIO@@QAEIPBDIPAN@Z
 ?Read@CFIDIO@@QAEIPBDIPAF@Z
 ?Read@CFIDIO@@QAEIPBDIPAH@Z
 ?Read@CFIDIO@@QAEIPBDIPAJ@Z 
 ?Read@CFIDIO@@QAEIPBDIPAD@Z 
 ?Write@CFIDIO@@QAEIHIPAM@Z 
 ?Write@CFIDIO@@QAEIHIPAN@Z 
 ?Write@CFIDIO@@QAEIHIPAD@Z 
 ?Write@CFIDIO@@QAEIHIPAH@Z 
 ?Write@CFIDIO@@QAEIHIPAF@Z 
 ?Write@CFIDIO@@QAEIHIPAJ@Z 
 ?Write@CFIDIO@@QAEIPBDIPAM@Z 
 ?Write@CFIDIO@@QAEIPBDIPAN@Z 
 ?Write@CFIDIO@@QAEIPBDIPAD@Z 
 ?Write@CFIDIO@@QAEIPBDIPAF@Z 
 ?Write@CFIDIO@@QAEIPBDIPAH@Z 
 ?Write@CFIDIO@@QAEIPBDIPAJ@Z 
 ?SeekToTop@CFIDIO@@QAEHXZ
 ?SeekToDepth@CFIDIO@@QAEHM@Z 
 ?Next@CFIDIO@@QAEHXZ
 ?GetDepth@CFIDIO@@QAEMXZ 
 ?GetStartDepth@CFIDIO@@QAEMXZ
 ?GetEndDepth@CFIDIO@@QAEMXZ
 ?GetDepthLevel@CFIDIO@@QAEMXZ 
 ?MoveDepth@CFIDIO@@QAEHM@Z
 ?UnitConvert@CFIDIO@@QAEHM@Z
 ?Round@@YAJN@Z         
 ?Delete@CFIDIO@@QAEHXZ  
 ?Copy@CFIDIO@@QAEHPBD@Z    
 ?Rename@CFIDIO@@QAEHPBD@Z  
 ?GetTypeLength@CFIDIO@@SAHH@Z 
 ?GetFileName@CFIDIO@@SAXPBDPADD@Z 
 ?GetFullFIDName@CFIDIO@@SAXPBDPAD@Z 
 ?GetFullWellName@CFIDIO@@SAXPBDPAD@Z 
 ?GetFIDName@CFIDIO@@SAXPBDPAD@Z 
 ?GetWellName@CFIDIO@@SAXPBDPAD@Z 
 ?GetPath@CFIDIO@@SAXPBDPAD@Z 
 ?GetDefaultValue@CFIDIO@@SAXPADHI@Z 
